; Function Attrs: mustprogress nofree nosync nounwind memory(readwrite, inaccessiblemem: none) uwtable
define noundef ptr @_ZN5Block9findMinLMEv(ptr noundef nonnull align 8 dereferenceable(112) %0) local_unnamed_addr #8 align 2 {
  %2 = alloca ptr, align 8
  call void @llvm.lifetime.start.p0(i64 8, ptr nonnull %2) #20
  store ptr null, ptr %2, align 8, !tbaa !43
  %3 = load ptr, ptr %0, align 8, !tbaa !37
  %4 = load ptr, ptr %3, align 8, !tbaa !21
  tail call void @_ZN5Block15reset_active_lmEP8VariableS1_(ptr noundef nonnull align 8 dereferenceable(112) %0, ptr noundef %4, ptr noundef null)
  %5 = load ptr, ptr %0, align 8, !tbaa !37
  %6 = load ptr, ptr %5, align 8, !tbaa !21
  %7 = call noundef double @_ZN5Block12compute_dfdvEP8VariableS1_RP10Constraint(ptr noundef nonnull align 8 dereferenceable(112) %0, ptr noundef %6, ptr noundef null, ptr noundef nonnull align 8 dereferenceable(8) %2)
  %8 = load ptr, ptr %2, align 8, !tbaa !43
  call void @llvm.lifetime.end.p0(i64 8, ptr nonnull %2) #20
  ret ptr %8
}